Certificate:
    Data:
        Version: 3 (0x2)
        Serial Number: 7 (0x7)
        Signature Algorithm: sha256WithRSAEncryption
        Issuer: CN=FakeCA
        Validity
            Not Before: Apr  8 13:48:02 2022 GMT
            Not After : Apr  8 13:48:02 2023 GMT
        Subject: CN=localhost, O=FakeCA
        Subject Public Key Info:
            Public Key Algorithm: rsaEncryption
                Public-Key: (2048 bit)
                Modulus:
                    00:de:19:67:cd:24:3b:f8:d3:f2:4b:49:d8:3b:be:
                    c6:f9:2a:fc:a5:0a:29:8b:ed:1a:af:7f:26:01:d1:
                    48:fe:2e:46:e2:fe:06:ee:87:78:51:56:33:73:1f:
                    24:c5:3b:af:34:db:c6:1f:3b:3d:bd:9c:a2:c7:37:
                    b6:63:4e:96:4d:66:09:a6:73:1f:01:b3:6d:be:13:
                    8d:f5:c1:02:7f:d4:8f:08:d8:f0:05:41:8b:45:b7:
                    0c:7a:2a:f8:f1:8c:c2:29:03:9f:3f:f9:62:c4:0b:
                    b7:3b:b5:ff:9c:36:0c:27:a4:83:3c:43:79:c7:93:
                    06:a4:bd:d3:80:2c:f9:af:4a:65:e7:de:a9:bd:3e:
                    1f:12:a0:5c:13:a8:88:08:b3:60:88:76:47:e1:6b:
                    b9:ea:ba:c4:fa:50:ca:69:11:cf:51:72:5c:b9:d9:
                    2c:62:70:d3:4b:71:f9:fd:bb:73:48:fd:0b:c2:cf:
                    58:bb:04:b4:dc:b5:20:0f:ee:6c:48:23:c8:3e:55:
                    2e:4c:71:f4:b9:e6:3f:6a:b5:56:75:22:16:2e:26:
                    bf:1b:ea:d1:cb:6a:b0:c5:0b:57:c7:b8:30:41:4c:
                    76:fb:af:b1:aa:bd:0a:18:4f:68:70:89:31:c1:c3:
                    77:64:74:ea:fd:cf:55:ba:fd:fa:29:b8:73:c3:5f:
                    65:3f
                Exponent: 65537 (0x10001)
        X509v3 extensions:
            X509v3 Basic Constraints: 
                CA:FALSE
            X509v3 Key Usage: 
                Digital Signature, Non Repudiation, Key Encipherment, Data Encipherment
            X509v3 Subject Alternative Name: 
                DNS:localhost, DNS:localhost:9443, IP Address:127.0.0.1, DNS:*.mshome.net
            X509v3 Subject Key Identifier: 
                B8:F5:D3:9B:EC:EB:35:D3:CE:6D:1F:54:30:51:00:5D:78:16:A8:7D
            X509v3 Authority Key Identifier: 
                DirName:/CN=FakeCA
                serial:42:08:86:4D:CE:36:00:E8:D2:28:68:4C:BC:AC:B8:A4:3C:AB:F7:95
    Signature Algorithm: sha256WithRSAEncryption
    Signature Value:
        7c:5e:87:b0:07:2c:35:f3:4a:60:da:6b:8a:a1:8d:97:96:06:
        1f:b8:fc:e7:ff:5b:03:48:ef:93:58:02:17:de:13:95:0e:f3:
        39:0f:7d:d5:4c:55:02:ac:48:21:3e:df:b2:eb:b4:02:2d:ab:
        12:58:0a:91:f6:9a:80:04:d9:16:81:0b:af:de:fc:7c:4e:65:
        35:42:f0:1d:73:30:45:24:49:dc:c5:04:e9:58:15:9b:ca:cc:
        65:27:f3:d3:3c:71:8a:8b:a6:fb:2d:42:fd:1d:fc:87:57:40:
        9c:96:90:29:7a:46:c3:9f:94:90:e9:9b:f0:d3:8a:e2:b1:e6:
        4f:84:24:3c:64:0f:d4:c4:2a:41:23:b0:df:74:b3:29:4a:22:
        01:ae:94:4e:6f:1f:15:e0:1b:96:ed:41:18:25:68:84:bd:a0:
        e4:32:f5:8d:9c:5e:6d:66:fd:66:84:67:60:da:cc:a9:78:5c:
        5d:d7:27:3b:20:f8:8c:ac:ee:df:62:a1:47:02:c5:09:7f:62:
        f7:af:11:ab:40:dd:1b:4e:c0:99:fe:2a:6b:de:68:56:a9:ff:
        cf:8e:4a:d6:10:69:02:56:ea:0d:82:a4:09:e6:77:8f:24:ef:
        d8:bf:45:6d:3f:32:56:e2:d6:a5:5c:a2:aa:40:a3:95:95:92:
        06:bc:0b:81
-----BEGIN CERTIFICATE-----
MIIDXjCCAkagAwIBAgIBBzANBgkqhkiG9w0BAQsFADARMQ8wDQYDVQQDDAZGYWtl
Q0EwHhcNMjIwNDA4MTM0ODAyWhcNMjMwNDA4MTM0ODAyWjAlMRIwEAYDVQQDDAls
b2NhbGhvc3QxDzANBgNVBAoMBkZha2VDQTCCASIwDQYJKoZIhvcNAQEBBQADggEP
ADCCAQoCggEBAN4ZZ80kO/jT8ktJ2Du+xvkq/KUKKYvtGq9/JgHRSP4uRuL+Bu6H
eFFWM3MfJMU7rzTbxh87Pb2cosc3tmNOlk1mCaZzHwGzbb4TjfXBAn/UjwjY8AVB
i0W3DHoq+PGMwikDnz/5YsQLtzu1/5w2DCekgzxDeceTBqS904As+a9KZefeqb0+
HxKgXBOoiAizYIh2R+Frueq6xPpQymkRz1FyXLnZLGJw00tx+f27c0j9C8LPWLsE
tNy1IA/ubEgjyD5VLkxx9LnmP2q1VnUiFi4mvxvq0ctqsMULV8e4MEFMdvuvsaq9
ChhPaHCJMcHDd2R06v3PVbr9+im4c8NfZT8CAwEAAaOBrDCBqTAJBgNVHRMEAjAA
MAsGA1UdDwQEAwIE8DA4BgNVHREEMTAvgglsb2NhbGhvc3SCDmxvY2FsaG9zdDo5
NDQzhwR/AAABggwqLm1zaG9tZS5uZXQwHQYDVR0OBBYEFLj105vs6zXTzm0fVDBR
AF14Fqh9MDYGA1UdIwQvMC2hFaQTMBExDzANBgNVBAMMBkZha2VDQYIUQgiGTc42
AOjSKGhMvKy4pDyr95UwDQYJKoZIhvcNAQELBQADggEBAHxeh7AHLDXzSmDaa4qh
jZeWBh+4/Of/WwNI75NYAhfeE5UO8zkPfdVMVQKsSCE+37LrtAItqxJYCpH2moAE
2RaBC6/e/HxOZTVC8B1zMEUkSdzFBOlYFZvKzGUn89M8cYqLpvstQv0d/IdXQJyW
kCl6RsOflJDpm/DTiuKx5k+EJDxkD9TEKkEjsN90sylKIgGulE5vHxXgG5btQRgl
aIS9oOQy9Y2cXm1m/WaEZ2DazKl4XF3XJzsg+Iys7t9ioUcCxQl/YvevEatA3RtO
wJn+KmveaFap/8+OStYQaQJW6g2CpAnmd48k79i/RW0/Mlbi1qVcoqpAo5WVkga8
C4E=
-----END CERTIFICATE-----
